; Function Attrs: mustprogress nofree norecurse nosync nounwind willreturn memory(argmem: write) uwtable
define internal i32 @code_to_mbc(i32 noundef %0, ptr noundef %1) #4 {
  %3 = and i32 %0, 65280
  %.not = icmp eq i32 %3, 0
  br i1 %.not, label %8, label %4

4:                                                ; preds = %2
  %5 = lshr i32 %0, 8
  %6 = trunc i32 %5 to i8
  %7 = getelementptr inbounds nuw i8, ptr %1, i64 1
  store i8 %6, ptr %1, align 1, !tbaa !4
  br label %8

8:                                                ; preds = %4, %2
  %.0 = phi ptr [ %7, %4 ], [ %1, %2 ]
  %9 = trunc i32 %0 to i8
  %10 = getelementptr inbounds nuw i8, ptr %.0, i64 1
  store i8 %9, ptr %.0, align 1, !tbaa !4
  %11 = ptrtoint ptr %10 to i64
  %12 = ptrtoint ptr %1 to i64
  %13 = sub i64 %11, %12
  %14 = trunc i64 %13 to i32
  ret i32 %14
}